target datalayout = "e-m:e-p270:32:32-p271:32:32-p272:64:64-i64:64-i128:128-f80:128-n8:16:32:64-S128"
target triple = "x86_64-pc-linux-gnu"

%struct.lua_State = type { %struct.GCRef, i8, i8, i8, i8, %struct.MRef, %struct.GCRef, ptr, ptr, %struct.MRef, %struct.MRef, %struct.GCRef, %struct.GCRef, ptr, i32 }
%struct.MRef = type { i64 }
%struct.GCRef = type { i64 }
%union.TValue = type { i64 }

; Function Attrs: nounwind uwtable
define internal i32 @lj_cf_rawset(ptr noundef %0) #3 {
  %2 = alloca ptr, align 8
  store ptr %0, ptr %2, align 8, !tbaa !4
  %3 = load ptr, ptr %2, align 8, !tbaa !4
  %4 = call ptr @lj_lib_checktab(ptr noundef %3, i32 noundef 1)
  %5 = load ptr, ptr %2, align 8, !tbaa !4
  %6 = call ptr @lj_lib_checkany(ptr noundef %5, i32 noundef 2)
  %7 = load ptr, ptr %2, align 8, !tbaa !4
  %8 = call ptr @lj_lib_checkany(ptr noundef %7, i32 noundef 3)
  %9 = getelementptr inbounds %union.TValue, ptr %8, i64 1
  %10 = load ptr, ptr %2, align 8, !tbaa !4
  %11 = getelementptr inbounds nuw %struct.lua_State, ptr %10, i32 0, i32 8
  store ptr %9, ptr %11, align 8, !tbaa !9
  %12 = load ptr, ptr %2, align 8, !tbaa !4
  call void @lua_rawset(ptr noundef %12, i32 noundef 1)
  ret i32 1
}