; Function Attrs: nounwind uwtable
define internal noundef i32 @lj_cf_rawset(ptr noundef %0) #2 {
  %2 = tail call ptr @lj_lib_checktab(ptr noundef %0, i32 noundef 1) #11
  %3 = tail call ptr @lj_lib_checkany(ptr noundef %0, i32 noundef 2) #11
  %4 = tail call ptr @lj_lib_checkany(ptr noundef %0, i32 noundef 3) #11
  %5 = getelementptr inbounds nuw i8, ptr %4, i64 8
  %6 = getelementptr inbounds nuw i8, ptr %0, i64 40
  store ptr %5, ptr %6, align 8, !tbaa !4
  tail call void @lua_rawset(ptr noundef %0, i32 noundef 1) #11
  ret i32 1
}